; Function Attrs: nounwind uwtable
define internal range(i32 0, 23) i32 @arenas_muzzy_decay_ms_ctl(ptr readnone captures(none) %0, ptr readnone captures(none) %1, i64 %2, ptr noundef writeonly captures(address_is_null) %3, ptr noundef captures(address_is_null) %4, ptr noundef readonly captures(address_is_null) %5, i64 noundef %6) #0 {
  %8 = alloca i64, align 8
  %9 = icmp ne ptr %3, null
  %10 = icmp ne ptr %4, null
  %or.cond.i = and i1 %9, %10
  br i1 %or.cond.i, label %11, label %15

11:                                               ; preds = %7
  call void @llvm.lifetime.start.p0(i64 8, ptr nonnull %8)
  %12 = tail call i64 @duckdb_je_arena_muzzy_decay_ms_default_get() #14
  store i64 %12, ptr %8, align 8, !tbaa !3
  %13 = load i64, ptr %4, align 8, !tbaa !3
  %.not.i = icmp eq i64 %13, 8
  br i1 %.not.i, label %.thread.i, label %14

.thread.i:                                        ; preds = %11
  store i64 %12, ptr %3, align 8, !tbaa !3
  call void @llvm.lifetime.end.p0(i64 8, ptr nonnull %8)
  br label %15

14:                                               ; preds = %11
  %spec.select.i = tail call i64 @llvm.umin.i64(i64 %13, i64 8)
  call void @llvm.memcpy.p0.p0.i64(ptr nonnull align 1 %3, ptr nonnull align 8 %8, i64 %spec.select.i, i1 false)
  store i64 %spec.select.i, ptr %4, align 8, !tbaa !3
  call void @llvm.lifetime.end.p0(i64 8, ptr nonnull %8)
  br label %arenas_decay_ms_ctl_impl.exit

15:                                               ; preds = %.thread.i, %7
  %.not30.i = icmp eq ptr %5, null
  br i1 %.not30.i, label %20, label %16

16:                                               ; preds = %15
  %.not31.i = icmp eq i64 %6, 8
  br i1 %.not31.i, label %17, label %arenas_decay_ms_ctl_impl.exit

17:                                               ; preds = %16
  %18 = load i64, ptr %5, align 8, !tbaa !3
  %19 = tail call zeroext i1 @duckdb_je_arena_muzzy_decay_ms_default_set(i64 noundef %18) #14
  br i1 %19, label %arenas_decay_ms_ctl_impl.exit, label %20

20:                                               ; preds = %17, %15
  br label %arenas_decay_ms_ctl_impl.exit

arenas_decay_ms_ctl_impl.exit:                    ; preds = %14, %16, %17, %20
  %.1.i = phi i32 [ 22, %14 ], [ 0, %20 ], [ 22, %16 ], [ 14, %17 ]
  ret i32 %.1.i
}